target datalayout = "e-m:e-p270:32:32-p271:32:32-p272:64:64-i64:64-i128:128-f80:128-n8:16:32:64-S128"
target triple = "x86_64-pc-linux-gnu"

%"class.llvm::SmallVectorBase" = type { ptr, i32, i32 }
%"class.llvm::RegBankSelect::RepairingPlacement" = type { i32, i32, i8, i8, %"class.llvm::SmallVector.215", ptr }
%"class.llvm::SmallVector.215" = type { %"class.llvm::SmallVectorImpl.216", %"struct.llvm::SmallVectorStorage.219" }
%"class.llvm::SmallVectorImpl.216" = type { %"class.llvm::SmallVectorTemplateBase.217" }
%"class.llvm::SmallVectorTemplateBase.217" = type { %"class.llvm::SmallVectorTemplateCommon.218" }
%"class.llvm::SmallVectorTemplateCommon.218" = type { %"class.llvm::SmallVectorBase" }
%"struct.llvm::SmallVectorStorage.219" = type { [16 x i8] }

@_ZN4llvm13RegBankSelect16InstrInsertPointC1ERNS_12MachineInstrEb = unnamed_addr alias void (ptr, ptr, i1), ptr @_ZN4llvm13RegBankSelect16InstrInsertPointC2ERNS_12MachineInstrEb

; Function Attrs: mustprogress nounwind uwtable
define dso_local void @_ZN4llvm13RegBankSelect18RepairingPlacement14addInsertPointERNS0_11InsertPointE(ptr noundef nonnull align 8 dereferenceable(56) %0, ptr noundef nonnull align 8 dereferenceable(9) %1) #1 align 2 {
  %3 = alloca ptr, align 8
  %4 = alloca ptr, align 8
  %5 = alloca ptr, align 8
  store ptr %0, ptr %3, align 8
  store ptr %1, ptr %4, align 8
  %6 = load ptr, ptr %3, align 8
  %7 = load ptr, ptr %4, align 8
  %8 = load ptr, ptr %7, align 8
  %9 = getelementptr inbounds ptr, ptr %8, i64 7
  %10 = load ptr, ptr %9, align 8
  %11 = call noundef zeroext i1 %10(ptr noundef nonnull align 8 dereferenceable(9) %7)
  %12 = zext i1 %11 to i32
  %13 = getelementptr inbounds nuw %"class.llvm::RegBankSelect::RepairingPlacement", ptr %6, i32 0, i32 2
  %14 = load i8, ptr %13, align 8
  %15 = trunc i8 %14 to i1
  %16 = zext i1 %15 to i32
  %17 = and i32 %16, %12
  %18 = icmp ne i32 %17, 0
  %19 = zext i1 %18 to i8
  store i8 %19, ptr %13, align 8
  %20 = load ptr, ptr %4, align 8
  %21 = load ptr, ptr %20, align 8
  %22 = getelementptr inbounds ptr, ptr %21, i64 5
  %23 = load ptr, ptr %22, align 8
  %24 = call noundef zeroext i1 %23(ptr noundef nonnull align 8 dereferenceable(9) %20)
  %25 = zext i1 %24 to i32
  %26 = getelementptr inbounds nuw %"class.llvm::RegBankSelect::RepairingPlacement", ptr %6, i32 0, i32 3
  %27 = load i8, ptr %26, align 1
  %28 = trunc i8 %27 to i1
  %29 = zext i1 %28 to i32
  %30 = or i32 %29, %25
  %31 = icmp ne i32 %30, 0
  %32 = zext i1 %31 to i8
  store i8 %32, ptr %26, align 1
  %33 = getelementptr inbounds nuw %"class.llvm::RegBankSelect::RepairingPlacement", ptr %6, i32 0, i32 4
  %34 = load ptr, ptr %4, align 8
  store ptr %34, ptr %5, align 8
  %35 = call noundef nonnull align 8 dereferenceable(8) ptr @_ZN4llvm15SmallVectorImplISt10unique_ptrINS_13RegBankSelect11InsertPointESt14default_deleteIS3_EEE12emplace_backIJPS3_EEERS6_DpOT_(ptr noundef nonnull align 8 dereferenceable(16) %33, ptr noundef nonnull align 8 dereferenceable(8) %5)
  ret void
}

; Function Attrs: mustprogress nounwind uwtable
define dso_local void @_ZN4llvm13RegBankSelect18RepairingPlacement14addInsertPointERNS_12MachineInstrEb(ptr noundef nonnull align 8 dereferenceable(56) %0, ptr noundef nonnull align 8 dereferenceable(70) %1, i1 noundef zeroext %2) #1 align 2 {
  %4 = alloca ptr, align 8
  %5 = alloca ptr, align 8
  %6 = alloca i8, align 1
  store ptr %0, ptr %4, align 8
  store ptr %1, ptr %5, align 8
  %7 = zext i1 %2 to i8
  store i8 %7, ptr %6, align 1
  %8 = load ptr, ptr %4, align 8
  %9 = call noalias noundef nonnull ptr @_Znwm(i64 noundef 32) #13
  %10 = load ptr, ptr %5, align 8
  %11 = load i8, ptr %6, align 1
  %12 = trunc i8 %11 to i1
  call void @_ZN4llvm13RegBankSelect16InstrInsertPointC1ERNS_12MachineInstrEb(ptr noundef nonnull align 8 dereferenceable(25) %9, ptr noundef nonnull align 8 dereferenceable(70) %10, i1 noundef zeroext %12)
  call void @_ZN4llvm13RegBankSelect18RepairingPlacement14addInsertPointERNS0_11InsertPointE(ptr noundef nonnull align 8 dereferenceable(56) %8, ptr noundef nonnull align 8 dereferenceable(9) %9)
  ret void
}