; Function Attrs: mustprogress nounwind uwtable
define dso_local void @_ZN4llvm13RegBankSelect18RepairingPlacement14addInsertPointERNS_12MachineInstrEb(ptr noundef nonnull align 8 dereferenceable(56) %0, ptr noundef nonnull align 8 dereferenceable(70) %1, i1 noundef zeroext %2) local_unnamed_addr #0 align 2 {
  %4 = alloca ptr, align 8
  %5 = tail call noalias noundef nonnull dereferenceable(32) ptr @_Znwm(i64 noundef 32) #23
  tail call void @_ZN4llvm13RegBankSelect16InstrInsertPointC1ERNS_12MachineInstrEb(ptr noundef nonnull align 8 dereferenceable(25) %5, ptr noundef nonnull align 8 dereferenceable(70) %1, i1 noundef zeroext %2) #21
  call void @llvm.lifetime.start.p0(i64 8, ptr nonnull %4)
  %6 = load ptr, ptr %5, align 8
  %7 = getelementptr inbounds nuw i8, ptr %6, i64 56
  %8 = load ptr, ptr %7, align 8
  %9 = tail call noundef zeroext i1 %8(ptr noundef nonnull align 8 dereferenceable(9) %5) #21
  %10 = getelementptr inbounds nuw i8, ptr %0, i64 8
  %11 = load i8, ptr %10, align 8
  %12 = and i8 %11, 1
  %13 = icmp ne i8 %12, 0
  %14 = select i1 %9, i1 %13, i1 false
  %15 = zext i1 %14 to i8
  store i8 %15, ptr %10, align 8
  %16 = load ptr, ptr %5, align 8
  %17 = getelementptr inbounds nuw i8, ptr %16, i64 40
  %18 = load ptr, ptr %17, align 8
  %19 = tail call noundef zeroext i1 %18(ptr noundef nonnull align 8 dereferenceable(9) %5) #21
  %20 = getelementptr inbounds nuw i8, ptr %0, i64 9
  %21 = load i8, ptr %20, align 1
  %22 = and i8 %21, 1
  %23 = zext i1 %19 to i8
  %24 = or i8 %22, %23
  store i8 %24, ptr %20, align 1
  %25 = getelementptr inbounds nuw i8, ptr %0, i64 16
  store ptr %5, ptr %4, align 8
  %26 = call noundef nonnull align 8 dereferenceable(8) ptr @_ZN4llvm15SmallVectorImplISt10unique_ptrINS_13RegBankSelect11InsertPointESt14default_deleteIS3_EEE12emplace_backIJPS3_EEERS6_DpOT_(ptr noundef nonnull align 8 dereferenceable(16) %25, ptr noundef nonnull align 8 dereferenceable(8) %4)
  call void @llvm.lifetime.end.p0(i64 8, ptr nonnull %4)
  ret void
}